target datalayout = "e-m:e-p270:32:32-p271:32:32-p272:64:64-i64:64-i128:128-f80:128-n8:16:32:64-S128"
target triple = "x86_64-pc-linux-gnu"

%"class.icu_77::MeasureUnit" = type <{ %"class.icu_77::UObject", ptr, i16, i8, [5 x i8] }>
%"class.icu_77::UObject" = type { ptr }
%"class.icu_77::UnicodeString" = type { %"class.icu_77::Replaceable", %"union.icu_77::UnicodeString::StackBufferOrFields" }
%"class.icu_77::Replaceable" = type { %"class.icu_77::UObject" }
%"union.icu_77::UnicodeString::StackBufferOrFields" = type { %struct.anon.12, [32 x i8] }
%struct.anon.12 = type { i16, i32, i32, ptr }
%"class.icu_77::ConstChar16Ptr" = type { ptr }
%"class.icu_77::number::LocalizedNumberFormatter" = type { %"class.icu_77::number::NumberFormatterSettings", ptr, [8 x i8], ptr }
%"class.icu_77::number::NumberFormatterSettings" = type { %"struct.icu_77::number::impl::MacroProps" }
%"struct.icu_77::number::impl::MacroProps" = type { [4 x i8], %"class.icu_77::number::Notation", %"class.icu_77::MeasureUnit", %"class.icu_77::MeasureUnit", %"class.icu_77::number::Precision", i32, %"class.icu_77::number::impl::Grouper", %"class.icu_77::number::impl::Padder", %"class.icu_77::number::IntegerWidth", %"class.icu_77::number::impl::SymbolsWrapper", i32, i32, i8, i32, %"class.icu_77::number::Scale", %"class.icu_77::number::impl::StringProp", %"class.icu_77::number::impl::StringProp", ptr, ptr, i32, [4 x i8], %"class.icu_77::Locale" }
%"class.icu_77::number::Notation" = type { i32, %"union.icu_77::number::Notation::NotationUnion" }
%"union.icu_77::number::Notation::NotationUnion" = type { %"struct.icu_77::number::Notation::NotationUnion::ScientificSettings" }
%"struct.icu_77::number::Notation::NotationUnion::ScientificSettings" = type { i8, i8, i16, i32 }
%"class.icu_77::number::Precision" = type <{ i32, [4 x i8], %"union.icu_77::number::Precision::PrecisionUnion", i32, [4 x i8] }>
%"union.icu_77::number::Precision::PrecisionUnion" = type { %"struct.icu_77::number::Precision::PrecisionUnion::IncrementSettings" }
%"struct.icu_77::number::Precision::PrecisionUnion::IncrementSettings" = type { i64, i16, i16 }
%"class.icu_77::number::impl::Grouper" = type { i16, i16, i16, i32 }
%"class.icu_77::number::impl::Padder" = type { i32, %union.anon.6 }
%union.anon.6 = type { %struct.anon.7 }
%struct.anon.7 = type { i32, i32 }
%"class.icu_77::number::IntegerWidth" = type <{ %union.anon.8, i8, [3 x i8] }>
%union.anon.8 = type { i32, [4 x i8] }
%"class.icu_77::number::impl::SymbolsWrapper" = type { i32, %union.anon.10 }
%union.anon.10 = type { ptr }
%"class.icu_77::number::Scale" = type <{ i32, [4 x i8], ptr, i32, [4 x i8] }>
%"class.icu_77::number::impl::StringProp" = type { ptr, i16, i32 }
%"class.icu_77::Locale" = type <{ %"class.icu_77::UObject", [12 x i8], [6 x i8], [4 x i8], [2 x i8], i32, [4 x i8], ptr, [157 x i8], [3 x i8], ptr, i8, [7 x i8] }>
%"class.icu_77::number::UnlocalizedNumberFormatter" = type <{ %"class.icu_77::number::NumberFormatterSettings.13", [8 x i8] }>
%"class.icu_77::number::NumberFormatterSettings.13" = type { %"struct.icu_77::number::impl::MacroProps" }
%"struct.icu_77::number::impl::UNumberFormatterData" = type { %"class.icu_77::IcuCApiHelper.5", %"class.icu_77::number::LocalizedNumberFormatter" }
%"class.icu_77::IcuCApiHelper.5" = type { i32 }
%struct.UParseError = type { i32, i32, [16 x i16], [16 x i16] }

; Function Attrs: mustprogress uwtable
define linkonce_odr void @_ZN6icu_776number23NumberFormatterSettingsINS0_24LocalizedNumberFormatterEEC2Ev(ptr noundef nonnull align 8 dereferenceable(472) %0) unnamed_addr #1 comdat align 2 {
  %2 = alloca ptr, align 8
  store ptr %0, ptr %2, align 8, !tbaa !193
  %3 = load ptr, ptr %2, align 8
  %4 = getelementptr inbounds nuw %"class.icu_77::number::NumberFormatterSettings", ptr %3, i32 0, i32 0
  call void @_ZN6icu_776number4impl10MacroPropsC2Ev(ptr noundef nonnull align 8 dereferenceable(472) %4)
  ret void
}

; Function Attrs: mustprogress nounwind uwtable
define linkonce_odr void @_ZN6icu_7713IcuCApiHelperI16UNumberFormatterNS_6number4impl20UNumberFormatterDataELi1313231360EED2Ev(ptr noundef nonnull align 4 dereferenceable(4) %0) unnamed_addr #0 comdat align 2 {
  %2 = alloca ptr, align 8
  store ptr %0, ptr %2, align 8, !tbaa !80
  %3 = load ptr, ptr %2, align 8
  %4 = getelementptr inbounds nuw %"class.icu_77::IcuCApiHelper.5", ptr %3, i32 0, i32 0
  store i32 0, ptr %4, align 4, !tbaa !86
  ret void
}

; Function Attrs: mustprogress uwtable
define linkonce_odr void @_ZN6icu_776number24LocalizedNumberFormatterC2Ev(ptr noundef nonnull align 8 dereferenceable(496) %0) unnamed_addr #1 comdat align 2 {
  %2 = alloca ptr, align 8
  store ptr %0, ptr %2, align 8, !tbaa !166
  %3 = load ptr, ptr %2, align 8
  call void @_ZN6icu_776number23NumberFormatterSettingsINS0_24LocalizedNumberFormatterEEC2Ev(ptr noundef nonnull align 8 dereferenceable(472) %3)
  %4 = getelementptr inbounds nuw %"class.icu_77::number::LocalizedNumberFormatter", ptr %3, i32 0, i32 1
  store ptr null, ptr %4, align 8, !tbaa !168
  %5 = getelementptr inbounds nuw %"class.icu_77::number::LocalizedNumberFormatter", ptr %3, i32 0, i32 2
  %6 = getelementptr inbounds i8, ptr %5, i64 8
  br label %7

7:                                                ; preds = %7, %1
  %8 = phi ptr [ %5, %1 ], [ %9, %7 ]
  store i8 0, ptr %8, align 1, !tbaa !46
  %9 = getelementptr inbounds i8, ptr %8, i64 1
  %10 = icmp eq ptr %9, %6
  br i1 %10, label %11, label %7

11:                                               ; preds = %7
  %12 = getelementptr inbounds nuw %"class.icu_77::number::LocalizedNumberFormatter", ptr %3, i32 0, i32 3
  store ptr null, ptr %12, align 8, !tbaa !192
  ret void
}

; Function Attrs: inlinehint mustprogress nounwind uwtable
define linkonce_odr void @_ZN6icu_7713IcuCApiHelperI16UNumberFormatterNS_6number4impl20UNumberFormatterDataELi1313231360EEC2Ev(ptr noundef nonnull align 4 dereferenceable(4) %0) unnamed_addr #2 comdat align 2 {
  %2 = alloca ptr, align 8
  store ptr %0, ptr %2, align 8, !tbaa !80
  %3 = load ptr, ptr %2, align 8
  %4 = getelementptr inbounds nuw %"class.icu_77::IcuCApiHelper.5", ptr %3, i32 0, i32 0
  store i32 1313231360, ptr %4, align 4, !tbaa !86
  ret void
}

; Function Attrs: mustprogress nounwind uwtable
define linkonce_odr noundef ptr @_ZN6icu_7713IcuCApiHelperI16UNumberFormatterNS_6number4impl20UNumberFormatterDataELi1313231360EE10exportForCEv(ptr noundef nonnull align 4 dereferenceable(4) %0) #0 comdat align 2 {
  %2 = alloca ptr, align 8
  store ptr %0, ptr %2, align 8, !tbaa !80
  %3 = load ptr, ptr %2, align 8
  ret ptr %3
}

; Function Attrs: inlinehint mustprogress nounwind uwtable
define linkonce_odr void @_ZN6icu_7714ConstChar16PtrD2Ev(ptr noundef nonnull align 8 dereferenceable(8) %0) unnamed_addr #2 comdat align 2 {
  %2 = alloca ptr, align 8
  store ptr %0, ptr %2, align 8, !tbaa !73
  %3 = load ptr, ptr %2, align 8
  %4 = getelementptr inbounds nuw %"class.icu_77::ConstChar16Ptr", ptr %3, i32 0, i32 0
  %5 = load ptr, ptr %4, align 8, !tbaa !75
  call void asm sideeffect "", "rm,~{memory},~{dirflag},~{fpsr},~{flags}"(ptr %5) #11, !srcloc !77
  ret void
}

; Function Attrs: inlinehint mustprogress nounwind uwtable
define linkonce_odr void @_ZN6icu_7714ConstChar16PtrC2EPKDs(ptr noundef nonnull align 8 dereferenceable(8) %0, ptr noundef %1) unnamed_addr #2 comdat align 2 {
  %3 = alloca ptr, align 8
  %4 = alloca ptr, align 8
  store ptr %0, ptr %3, align 8, !tbaa !73
  store ptr %1, ptr %4, align 8, !tbaa !69
  %5 = load ptr, ptr %3, align 8
  %6 = getelementptr inbounds nuw %"class.icu_77::ConstChar16Ptr", ptr %5, i32 0, i32 0
  %7 = load ptr, ptr %4, align 8, !tbaa !69
  store ptr %7, ptr %6, align 8, !tbaa !75
  ret void
}

; Function Attrs: inlinehint mustprogress uwtable
define linkonce_odr void @_ZN6icu_776number4impl20UNumberFormatterDataC2Ev(ptr noundef nonnull align 8 dereferenceable(504) %0) unnamed_addr #3 comdat align 2 personality ptr @__gxx_personality_v0 {
  %2 = alloca ptr, align 8
  %3 = alloca ptr, align 8
  %4 = alloca i32, align 4
  store ptr %0, ptr %2, align 8, !tbaa !71
  %5 = load ptr, ptr %2, align 8
  call void @_ZN6icu_7713IcuCApiHelperI16UNumberFormatterNS_6number4impl20UNumberFormatterDataELi1313231360EEC2Ev(ptr noundef nonnull align 4 dereferenceable(4) %5) #11
  %6 = getelementptr inbounds nuw %"struct.icu_77::number::impl::UNumberFormatterData", ptr %5, i32 0, i32 1
  invoke void @_ZN6icu_776number24LocalizedNumberFormatterC2Ev(ptr noundef nonnull align 8 dereferenceable(496) %6)
          to label %7 unwind label %8

7:                                                ; preds = %1
  ret void

8:                                                ; preds = %1
  %9 = landingpad { ptr, i32 }
          cleanup
  %10 = extractvalue { ptr, i32 } %9, 0
  store ptr %10, ptr %3, align 8
  %11 = extractvalue { ptr, i32 } %9, 1
  store i32 %11, ptr %4, align 4
  call void @_ZN6icu_7713IcuCApiHelperI16UNumberFormatterNS_6number4impl20UNumberFormatterDataELi1313231360EED2Ev(ptr noundef nonnull align 4 dereferenceable(4) %5) #11
  br label %12

12:                                               ; preds = %8
  %13 = load ptr, ptr %3, align 8
  %14 = load i32, ptr %4, align 4
  %15 = insertvalue { ptr, i32 } poison, ptr %13, 0
  %16 = insertvalue { ptr, i32 } %15, i32 %14, 1
  resume { ptr, i32 } %16
}

; Function Attrs: mustprogress uwtable
define ptr @unumf_openForSkeletonAndLocaleWithError_77(ptr noundef %0, i32 noundef %1, ptr noundef %2, ptr noundef %3, ptr noundef %4) #1 personality ptr @__gxx_personality_v0 {
  %6 = alloca ptr, align 8
  %7 = alloca ptr, align 8
  %8 = alloca i32, align 4
  %9 = alloca ptr, align 8
  %10 = alloca ptr, align 8
  %11 = alloca ptr, align 8
  %12 = alloca ptr, align 8
  %13 = alloca i1, align 1
  %14 = alloca ptr, align 8
  %15 = alloca i32, align 4
  %16 = alloca i32, align 4
  %17 = alloca %"class.icu_77::UnicodeString", align 8
  %18 = alloca %"class.icu_77::ConstChar16Ptr", align 8
  %19 = alloca %struct.UParseError, align 4
  %20 = alloca %"class.icu_77::number::LocalizedNumberFormatter", align 8
  %21 = alloca %"class.icu_77::number::UnlocalizedNumberFormatter", align 8
  %22 = alloca %"class.icu_77::Locale", align 8
  store ptr %0, ptr %7, align 8, !tbaa !69
  store i32 %1, ptr %8, align 4, !tbaa !14
  store ptr %2, ptr %9, align 8, !tbaa !17
  store ptr %3, ptr %10, align 8, !tbaa !82
  store ptr %4, ptr %11, align 8, !tbaa !22
  call void @llvm.lifetime.start.p0(i64 8, ptr %12) #11
  %23 = call noundef ptr @_ZN6icu_777UMemorynwEm(i64 noundef 504) #11
  %24 = icmp eq ptr %23, null
  store i1 false, ptr %13, align 1
  br i1 %24, label %27, label %25

25:                                               ; preds = %5
  store i1 true, ptr %13, align 1
  call void @llvm.memset.p0.i64(ptr align 8 %23, i8 0, i64 504, i1 false)
  invoke void @_ZN6icu_776number4impl20UNumberFormatterDataC2Ev(ptr noundef nonnull align 8 dereferenceable(504) %23)
          to label %26 unwind label %33

26:                                               ; preds = %25
  br label %27

27:                                               ; preds = %26, %5
  %28 = phi ptr [ %23, %26 ], [ null, %5 ]
  store ptr %28, ptr %12, align 8, !tbaa !71
  %29 = load ptr, ptr %12, align 8, !tbaa !71
  %30 = icmp eq ptr %29, null
  br i1 %30, label %31, label %40

31:                                               ; preds = %27
  %32 = load ptr, ptr %11, align 8, !tbaa !22
  store i32 7, ptr %32, align 4, !tbaa !15
  store ptr null, ptr %6, align 8
  store i32 1, ptr %16, align 4
  br label %89

33:                                               ; preds = %25
  %34 = landingpad { ptr, i32 }
          cleanup
  %35 = extractvalue { ptr, i32 } %34, 0
  store ptr %35, ptr %14, align 8
  %36 = extractvalue { ptr, i32 } %34, 1
  store i32 %36, ptr %15, align 4
  %37 = load i1, ptr %13, align 1
  br i1 %37, label %38, label %39

38:                                               ; preds = %33
  call void @_ZN6icu_777UMemorydlEPv(ptr noundef %23) #11
  br label %39

39:                                               ; preds = %38, %33
  br label %91

40:                                               ; preds = %27
  call void @llvm.lifetime.start.p0(i64 64, ptr %17) #11
  %41 = load i32, ptr %8, align 4, !tbaa !14
  %42 = icmp eq i32 %41, -1
  %43 = zext i1 %42 to i8
  %44 = load ptr, ptr %7, align 8, !tbaa !69
  call void @_ZN6icu_7714ConstChar16PtrC2EPKDs(ptr noundef nonnull align 8 dereferenceable(8) %18, ptr noundef %44)
  %45 = load i32, ptr %8, align 4, !tbaa !14
  invoke void @_ZN6icu_7713UnicodeStringC1EaNS_14ConstChar16PtrEi(ptr noundef nonnull align 8 dereferenceable(64) %17, i8 noundef signext %43, ptr noundef %18, i32 noundef %45)
          to label %46 unwind label %65

46:                                               ; preds = %40
  call void @_ZN6icu_7714ConstChar16PtrD2Ev(ptr noundef nonnull align 8 dereferenceable(8) %18) #11
  call void @llvm.lifetime.start.p0(i64 72, ptr %19) #11
  call void @llvm.lifetime.start.p0(i64 496, ptr %20) #11
  call void @llvm.lifetime.start.p0(i64 480, ptr %21) #11
  %47 = load ptr, ptr %10, align 8, !tbaa !82
  %48 = icmp eq ptr %47, null
  br i1 %48, label %49, label %50

49:                                               ; preds = %46
  br label %52

50:                                               ; preds = %46
  %51 = load ptr, ptr %10, align 8, !tbaa !82
  br label %52

52:                                               ; preds = %50, %49
  %53 = phi ptr [ %19, %49 ], [ %51, %50 ]
  %54 = load ptr, ptr %11, align 8, !tbaa !22
  invoke void @_ZN6icu_776number15NumberFormatter11forSkeletonERKNS_13UnicodeStringER11UParseErrorR10UErrorCode(ptr dead_on_unwind writable sret(%"class.icu_77::number::UnlocalizedNumberFormatter") align 8 %21, ptr noundef nonnull align 8 dereferenceable(64) %17, ptr noundef nonnull align 4 dereferenceable(72) %53, ptr noundef nonnull align 4 dereferenceable(4) %54)
          to label %55 unwind label %69

55:                                               ; preds = %52
  call void @llvm.lifetime.start.p0(i64 224, ptr %22) #11
  %56 = load ptr, ptr %9, align 8, !tbaa !17
  invoke void @_ZN6icu_776LocaleC1EPKcS2_S2_S2_(ptr noundef nonnull align 8 dereferenceable(217) %22, ptr noundef %56, ptr noundef null, ptr noundef null, ptr noundef null)
          to label %57 unwind label %73

57:                                               ; preds = %55
  invoke void @_ZNO6icu_776number26UnlocalizedNumberFormatter6localeERKNS_6LocaleE(ptr dead_on_unwind writable sret(%"class.icu_77::number::LocalizedNumberFormatter") align 8 %20, ptr noundef nonnull align 8 dereferenceable(473) %21, ptr noundef nonnull align 8 dereferenceable(217) %22)
          to label %58 unwind label %77

58:                                               ; preds = %57
  %59 = load ptr, ptr %12, align 8, !tbaa !71
  %60 = getelementptr inbounds nuw %"struct.icu_77::number::impl::UNumberFormatterData", ptr %59, i32 0, i32 1
  %61 = call noundef nonnull align 8 dereferenceable(496) ptr @_ZN6icu_776number24LocalizedNumberFormatteraSEOS1_(ptr noundef nonnull align 8 dereferenceable(496) %60, ptr noundef nonnull align 8 dereferenceable(496) %20) #11
  call void @_ZN6icu_776number24LocalizedNumberFormatterD1Ev(ptr noundef nonnull align 8 dereferenceable(496) %20) #11
  call void @_ZN6icu_776LocaleD1Ev(ptr noundef nonnull align 8 dereferenceable(217) %22) #11
  call void @llvm.lifetime.end.p0(i64 224, ptr %22) #11
  call void @_ZN6icu_776number23NumberFormatterSettingsINS0_26UnlocalizedNumberFormatterEED2Ev(ptr noundef nonnull align 8 dereferenceable(473) %21) #11
  call void @llvm.lifetime.end.p0(i64 480, ptr %21) #11
  call void @llvm.lifetime.end.p0(i64 496, ptr %20) #11
  %62 = load ptr, ptr %12, align 8, !tbaa !71
  %63 = invoke noundef ptr @_ZN6icu_7713IcuCApiHelperI16UNumberFormatterNS_6number4impl20UNumberFormatterDataELi1313231360EE10exportForCEv(ptr noundef nonnull align 4 dereferenceable(4) %62)
          to label %64 unwind label %83

64:                                               ; preds = %58
  store ptr %63, ptr %6, align 8
  store i32 1, ptr %16, align 4
  call void @llvm.lifetime.end.p0(i64 72, ptr %19) #11
  call void @_ZN6icu_7713UnicodeStringD1Ev(ptr noundef nonnull align 8 dereferenceable(64) %17) #11
  call void @llvm.lifetime.end.p0(i64 64, ptr %17) #11
  br label %89

65:                                               ; preds = %40
  %66 = landingpad { ptr, i32 }
          cleanup
  %67 = extractvalue { ptr, i32 } %66, 0
  store ptr %67, ptr %14, align 8
  %68 = extractvalue { ptr, i32 } %66, 1
  store i32 %68, ptr %15, align 4
  call void @_ZN6icu_7714ConstChar16PtrD2Ev(ptr noundef nonnull align 8 dereferenceable(8) %18) #11
  br label %88

69:                                               ; preds = %52
  %70 = landingpad { ptr, i32 }
          cleanup
  %71 = extractvalue { ptr, i32 } %70, 0
  store ptr %71, ptr %14, align 8
  %72 = extractvalue { ptr, i32 } %70, 1
  store i32 %72, ptr %15, align 4
  br label %82

73:                                               ; preds = %55
  %74 = landingpad { ptr, i32 }
          cleanup
  %75 = extractvalue { ptr, i32 } %74, 0
  store ptr %75, ptr %14, align 8
  %76 = extractvalue { ptr, i32 } %74, 1
  store i32 %76, ptr %15, align 4
  br label %81

77:                                               ; preds = %57
  %78 = landingpad { ptr, i32 }
          cleanup
  %79 = extractvalue { ptr, i32 } %78, 0
  store ptr %79, ptr %14, align 8
  %80 = extractvalue { ptr, i32 } %78, 1
  store i32 %80, ptr %15, align 4
  call void @_ZN6icu_776LocaleD1Ev(ptr noundef nonnull align 8 dereferenceable(217) %22) #11
  br label %81

81:                                               ; preds = %77, %73
  call void @llvm.lifetime.end.p0(i64 224, ptr %22) #11
  call void @_ZN6icu_776number23NumberFormatterSettingsINS0_26UnlocalizedNumberFormatterEED2Ev(ptr noundef nonnull align 8 dereferenceable(473) %21) #11
  br label %82

82:                                               ; preds = %81, %69
  call void @llvm.lifetime.end.p0(i64 480, ptr %21) #11
  call void @llvm.lifetime.end.p0(i64 496, ptr %20) #11
  br label %87

83:                                               ; preds = %58
  %84 = landingpad { ptr, i32 }
          cleanup
  %85 = extractvalue { ptr, i32 } %84, 0
  store ptr %85, ptr %14, align 8
  %86 = extractvalue { ptr, i32 } %84, 1
  store i32 %86, ptr %15, align 4
  br label %87

87:                                               ; preds = %83, %82
  call void @llvm.lifetime.end.p0(i64 72, ptr %19) #11
  call void @_ZN6icu_7713UnicodeStringD1Ev(ptr noundef nonnull align 8 dereferenceable(64) %17) #11
  br label %88

88:                                               ; preds = %87, %65
  call void @llvm.lifetime.end.p0(i64 64, ptr %17) #11
  br label %91

89:                                               ; preds = %64, %31
  call void @llvm.lifetime.end.p0(i64 8, ptr %12) #11
  %90 = load ptr, ptr %6, align 8
  ret ptr %90

91:                                               ; preds = %88, %39
  call void @llvm.lifetime.end.p0(i64 8, ptr %12) #11
  br label %92

92:                                               ; preds = %91
  %93 = load ptr, ptr %14, align 8
  %94 = load i32, ptr %15, align 4
  %95 = insertvalue { ptr, i32 } poison, ptr %93, 0
  %96 = insertvalue { ptr, i32 } %95, i32 %94, 1
  resume { ptr, i32 } %96
}