; Function Attrs: mustprogress uwtable
define noundef ptr @unumf_openForSkeletonAndLocaleWithError_77(ptr noundef %0, i32 noundef %1, ptr noundef %2, ptr noundef %3, ptr noundef %4) local_unnamed_addr #1 personality ptr @__gxx_personality_v0 {
  %6 = alloca %"class.icu_77::UnicodeString", align 8
  %7 = alloca %"class.icu_77::ConstChar16Ptr", align 8
  %8 = alloca %struct.UParseError, align 4
  %9 = alloca %"class.icu_77::number::LocalizedNumberFormatter", align 8
  %10 = alloca %"class.icu_77::number::UnlocalizedNumberFormatter", align 8
  %11 = alloca %"class.icu_77::Locale", align 8
  %12 = tail call noundef ptr @_ZN6icu_777UMemorynwEm(i64 noundef 504) #15
  %13 = icmp eq ptr %12, null
  br i1 %13, label %17, label %14

14:                                               ; preds = %5
  tail call void @llvm.memset.p0.i64(ptr noundef nonnull align 8 dereferenceable(504) %12, i8 0, i64 504, i1 false)
  store i32 1313231360, ptr %12, align 4, !tbaa !51
  %15 = getelementptr inbounds nuw i8, ptr %12, i64 8
  invoke void @_ZN6icu_776number4impl10MacroPropsC2Ev(ptr noundef nonnull align 8 dereferenceable(496) %15)
          to label %18 unwind label %.body

.body:                                            ; preds = %14
  %16 = landingpad { ptr, i32 }
          cleanup
  store i32 0, ptr %12, align 4, !tbaa !51
  tail call void @_ZN6icu_777UMemorydlEPv(ptr noundef nonnull %12) #15
  br label %50

17:                                               ; preds = %5
  store i32 7, ptr %4, align 4, !tbaa !13
  br label %49

18:                                               ; preds = %14
  %19 = getelementptr inbounds nuw i8, ptr %12, i64 480
  tail call void @llvm.memset.p0.i64(ptr noundef nonnull align 8 dereferenceable(24) %19, i8 0, i64 24, i1 false)
  call void @llvm.lifetime.start.p0(i64 64, ptr nonnull %6) #15
  %20 = icmp eq i32 %1, -1
  %21 = zext i1 %20 to i8
  store ptr %0, ptr %7, align 8, !tbaa !53
  invoke void @_ZN6icu_7713UnicodeStringC1EaNS_14ConstChar16PtrEi(ptr noundef nonnull align 8 dereferenceable(64) %6, i8 noundef signext %21, ptr noundef nonnull %7, i32 noundef %1)
          to label %22 unwind label %37

22:                                               ; preds = %18
  %23 = load ptr, ptr %7, align 8, !tbaa !53
  call void asm sideeffect "", "rm,~{memory},~{dirflag},~{fpsr},~{flags}"(ptr %23) #15, !srcloc !56
  call void @llvm.lifetime.start.p0(i64 72, ptr nonnull %8) #15
  call void @llvm.lifetime.start.p0(i64 496, ptr nonnull %9) #15
  call void @llvm.lifetime.start.p0(i64 480, ptr nonnull %10) #15
  %24 = icmp eq ptr %3, null
  %25 = select i1 %24, ptr %8, ptr %3
  invoke void @_ZN6icu_776number15NumberFormatter11forSkeletonERKNS_13UnicodeStringER11UParseErrorR10UErrorCode(ptr dead_on_unwind nonnull writable sret(%"class.icu_77::number::UnlocalizedNumberFormatter") align 8 %10, ptr noundef nonnull align 8 dereferenceable(64) %6, ptr noundef nonnull align 4 dereferenceable(72) %25, ptr noundef nonnull align 4 dereferenceable(4) %4)
          to label %26 unwind label %40

26:                                               ; preds = %22
  call void @llvm.lifetime.start.p0(i64 224, ptr nonnull %11) #15
  invoke void @_ZN6icu_776LocaleC1EPKcS2_S2_S2_(ptr noundef nonnull align 8 dereferenceable(217) %11, ptr noundef %2, ptr noundef null, ptr noundef null, ptr noundef null)
          to label %27 unwind label %42

27:                                               ; preds = %26
  invoke void @_ZNO6icu_776number26UnlocalizedNumberFormatter6localeERKNS_6LocaleE(ptr dead_on_unwind nonnull writable sret(%"class.icu_77::number::LocalizedNumberFormatter") align 8 %9, ptr noundef nonnull align 8 dereferenceable(473) %10, ptr noundef nonnull align 8 dereferenceable(217) %11)
          to label %28 unwind label %44

28:                                               ; preds = %27
  %29 = call noundef nonnull align 8 dereferenceable(496) ptr @_ZN6icu_776number24LocalizedNumberFormatteraSEOS1_(ptr noundef nonnull align 8 dereferenceable(496) %15, ptr noundef nonnull align 8 dereferenceable(496) %9) #15
  call void @_ZN6icu_776number24LocalizedNumberFormatterD1Ev(ptr noundef nonnull align 8 dereferenceable(496) %9) #15
  call void @_ZN6icu_776LocaleD1Ev(ptr noundef nonnull align 8 dereferenceable(217) %11) #15
  call void @llvm.lifetime.end.p0(i64 224, ptr nonnull %11) #15
  %30 = getelementptr inbounds nuw i8, ptr %10, i64 248
  call void @_ZN6icu_776LocaleD1Ev(ptr noundef nonnull align 8 dereferenceable(217) %30) #15
  %31 = getelementptr inbounds nuw i8, ptr %10, i64 208
  call void @_ZN6icu_776number4impl10StringPropD1Ev(ptr noundef nonnull align 8 dereferenceable(16) %31) #15
  %32 = getelementptr inbounds nuw i8, ptr %10, i64 192
  call void @_ZN6icu_776number4impl10StringPropD1Ev(ptr noundef nonnull align 8 dereferenceable(16) %32) #15
  %33 = getelementptr inbounds nuw i8, ptr %10, i64 168
  call void @_ZN6icu_776number5ScaleD1Ev(ptr noundef nonnull align 8 dereferenceable(20) %33) #15
  %34 = getelementptr inbounds nuw i8, ptr %10, i64 136
  call void @_ZN6icu_776number4impl14SymbolsWrapperD1Ev(ptr noundef nonnull align 8 dereferenceable(16) %34) #15
  %35 = getelementptr inbounds nuw i8, ptr %10, i64 40
  call void @_ZN6icu_7711MeasureUnitD1Ev(ptr noundef nonnull align 8 dereferenceable(19) %35) #15
  %36 = getelementptr inbounds nuw i8, ptr %10, i64 16
  call void @_ZN6icu_7711MeasureUnitD1Ev(ptr noundef nonnull align 8 dereferenceable(19) %36) #15
  call void @llvm.lifetime.end.p0(i64 480, ptr nonnull %10) #15
  call void @llvm.lifetime.end.p0(i64 496, ptr nonnull %9) #15
  call void @llvm.lifetime.end.p0(i64 72, ptr nonnull %8) #15
  call void @_ZN6icu_7713UnicodeStringD1Ev(ptr noundef nonnull align 8 dereferenceable(64) %6) #15
  call void @llvm.lifetime.end.p0(i64 64, ptr nonnull %6) #15
  br label %49

37:                                               ; preds = %18
  %38 = landingpad { ptr, i32 }
          cleanup
  %39 = load ptr, ptr %7, align 8, !tbaa !53
  call void asm sideeffect "", "rm,~{memory},~{dirflag},~{fpsr},~{flags}"(ptr %39) #15, !srcloc !56
  br label %48

40:                                               ; preds = %22
  %41 = landingpad { ptr, i32 }
          cleanup
  br label %47

42:                                               ; preds = %26
  %43 = landingpad { ptr, i32 }
          cleanup
  br label %46

44:                                               ; preds = %27
  %45 = landingpad { ptr, i32 }
          cleanup
  call void @_ZN6icu_776LocaleD1Ev(ptr noundef nonnull align 8 dereferenceable(217) %11) #15
  br label %46

46:                                               ; preds = %44, %42
  %.pn = phi { ptr, i32 } [ %45, %44 ], [ %43, %42 ]
  call void @llvm.lifetime.end.p0(i64 224, ptr nonnull %11) #15
  call void @_ZN6icu_776number23NumberFormatterSettingsINS0_26UnlocalizedNumberFormatterEED2Ev(ptr noundef nonnull align 8 dereferenceable(473) %10) #15
  br label %47

47:                                               ; preds = %46, %40
  %.pn.pn = phi { ptr, i32 } [ %.pn, %46 ], [ %41, %40 ]
  call void @llvm.lifetime.end.p0(i64 480, ptr nonnull %10) #15
  call void @llvm.lifetime.end.p0(i64 496, ptr nonnull %9) #15
  call void @llvm.lifetime.end.p0(i64 72, ptr nonnull %8) #15
  call void @_ZN6icu_7713UnicodeStringD1Ev(ptr noundef nonnull align 8 dereferenceable(64) %6) #15
  br label %48

48:                                               ; preds = %47, %37
  %.pn.pn.pn = phi { ptr, i32 } [ %.pn.pn, %47 ], [ %38, %37 ]
  call void @llvm.lifetime.end.p0(i64 64, ptr nonnull %6) #15
  br label %50

49:                                               ; preds = %28, %17
  ret ptr %12

50:                                               ; preds = %.body, %48
  %.pn.pn.pn.pn = phi { ptr, i32 } [ %.pn.pn.pn, %48 ], [ %16, %.body ]
  resume { ptr, i32 } %.pn.pn.pn.pn
}